target datalayout = "e-m:e-p270:32:32-p271:32:32-p272:64:64-i64:64-i128:128-f80:128-n8:16:32:64-S128"
target triple = "x86_64-pc-linux-gnu"

%struct.XReparentEvent = type { i32, i64, i32, ptr, i64, i64, i64, i32, i32, i32 }
%struct.XUnmapEvent = type { i32, i64, i32, ptr, i64, i64, i32 }

; Function Attrs: nounwind uwtable
define internal i32 @isReparentNotify(ptr noundef %0, ptr noundef %1, ptr noundef %2) #0 {
  %4 = alloca ptr, align 8
  %5 = alloca ptr, align 8
  %6 = alloca ptr, align 8
  %7 = alloca ptr, align 8
  store ptr %0, ptr %4, align 8
  store ptr %1, ptr %5, align 8
  store ptr %2, ptr %6, align 8
  call void @llvm.lifetime.start.p0(i64 8, ptr %7) #7
  %8 = load ptr, ptr %6, align 8
  store ptr %8, ptr %7, align 8
  %9 = load ptr, ptr %5, align 8
  %10 = load i32, ptr %9, align 8
  %11 = icmp eq i32 %10, 21
  br i1 %11, label %12, label %28

12:                                               ; preds = %3
  %13 = load ptr, ptr %5, align 8
  %14 = getelementptr inbounds nuw %struct.XReparentEvent, ptr %13, i32 0, i32 5
  %15 = load i64, ptr %14, align 8
  %16 = load ptr, ptr %7, align 8
  %17 = getelementptr inbounds nuw %struct.XUnmapEvent, ptr %16, i32 0, i32 5
  %18 = load i64, ptr %17, align 8
  %19 = icmp eq i64 %15, %18
  br i1 %19, label %20, label %28

20:                                               ; preds = %12
  %21 = load ptr, ptr %5, align 8
  %22 = getelementptr inbounds nuw %struct.XReparentEvent, ptr %21, i32 0, i32 1
  %23 = load i64, ptr %22, align 8
  %24 = load ptr, ptr %7, align 8
  %25 = getelementptr inbounds nuw %struct.XUnmapEvent, ptr %24, i32 0, i32 1
  %26 = load i64, ptr %25, align 8
  %27 = icmp eq i64 %23, %26
  br label %28

28:                                               ; preds = %20, %12, %3
  %29 = phi i1 [ false, %12 ], [ false, %3 ], [ %27, %20 ]
  %30 = zext i1 %29 to i32
  call void @llvm.lifetime.end.p0(i64 8, ptr %7) #7
  ret i32 %30
}